target datalayout = "e-m:e-p270:32:32-p271:32:32-p272:64:64-i64:64-i128:128-f80:128-n8:16:32:64-S128"
target triple = "x86_64-pc-linux-gnu"

@ett_extcaps = internal global i32 0, align 4

; Function Attrs: null_pointer_is_valid sspstrong uwtable
define internal i32 @mariadb_dissect_caps_or_flags(ptr noundef %0, i32 noundef %1, i32 noundef %2, ptr noundef %3, i32 noundef %4, ptr noundef %5, ptr noundef %6) #0 {
  %8 = alloca i32, align 4
  %9 = alloca ptr, align 8
  %10 = alloca i32, align 4
  %11 = alloca i32, align 4
  %12 = alloca ptr, align 8
  %13 = alloca i32, align 4
  %14 = alloca ptr, align 8
  %15 = alloca ptr, align 8
  %16 = alloca i8, align 1
  %17 = alloca i32, align 4
  store ptr %0, ptr %9, align 8
  store i32 %1, ptr %10, align 4
  store i32 %2, ptr %11, align 4
  store ptr %3, ptr %12, align 8
  store i32 %4, ptr %13, align 4
  store ptr %5, ptr %14, align 8
  store ptr %6, ptr %15, align 8
  call void @llvm.lifetime.start.p0(i64 1, ptr %16) #11
  store i8 0, ptr %16, align 1
  %18 = load i32, ptr %11, align 4
  switch i32 %18, label %34 [
    i32 4, label %19
    i32 5, label %24
    i32 7, label %29
  ]

19:                                               ; preds = %7
  %20 = load ptr, ptr %9, align 8
  %21 = load i32, ptr %10, align 4
  %22 = call zeroext i8 @tvb_get_uint8(ptr noundef %20, i32 noundef %21)
  %23 = load ptr, ptr %15, align 8
  store i8 %22, ptr %23, align 1
  store i8 1, ptr %16, align 1
  br label %35

24:                                               ; preds = %7
  %25 = load ptr, ptr %9, align 8
  %26 = load i32, ptr %10, align 4
  %27 = call zeroext i16 @tvb_get_letohs(ptr noundef %25, i32 noundef %26)
  %28 = load ptr, ptr %15, align 8
  store i16 %27, ptr %28, align 2
  store i8 2, ptr %16, align 1
  br label %35

29:                                               ; preds = %7
  %30 = load ptr, ptr %9, align 8
  %31 = load i32, ptr %10, align 4
  %32 = call i32 @tvb_get_letohl(ptr noundef %30, i32 noundef %31)
  %33 = load ptr, ptr %15, align 8
  store i32 %32, ptr %33, align 4
  store i8 4, ptr %16, align 1
  br label %35

34:                                               ; preds = %7
  store i32 0, ptr %8, align 4
  store i32 1, ptr %17, align 4
  br label %48

35:                                               ; preds = %29, %24, %19
  %36 = load ptr, ptr %12, align 8
  %37 = load ptr, ptr %9, align 8
  %38 = load i32, ptr %10, align 4
  %39 = load i32, ptr %13, align 4
  %40 = load i32, ptr @ett_extcaps, align 4
  %41 = load ptr, ptr %14, align 8
  %42 = call ptr @proto_tree_add_bitmask_with_flags(ptr noundef %36, ptr noundef %37, i32 noundef %38, i32 noundef %39, i32 noundef %40, ptr noundef %41, i32 noundef -2147483648, i32 noundef 1)
  %43 = load i8, ptr %16, align 1
  %44 = zext i8 %43 to i32
  %45 = load i32, ptr %10, align 4
  %46 = add i32 %45, %44
  store i32 %46, ptr %10, align 4
  %47 = load i32, ptr %10, align 4
  store i32 %47, ptr %8, align 4
  store i32 1, ptr %17, align 4
  br label %48

48:                                               ; preds = %35, %34
  call void @llvm.lifetime.end.p0(i64 1, ptr %16) #11
  %49 = load i32, ptr %8, align 4
  ret i32 %49
}