; Function Attrs: null_pointer_is_valid sspstrong uwtable
define internal fastcc void @mariadb_dissect_caps_or_flags(ptr noundef %0, i32 noundef %1, i32 noundef range(i32 5, 8) %2, ptr noundef %3, i32 noundef %4, ptr noundef %5, ptr noundef writeonly captures(none) %6) unnamed_addr #0 {
  switch i32 %2, label %15 [
    i32 7, label %10
    i32 5, label %8
  ]

8:                                                ; preds = %7
  %9 = tail call zeroext i16 @tvb_get_letohs(ptr noundef %0, i32 noundef %1)
  store i16 %9, ptr %6, align 2
  br label %12

10:                                               ; preds = %7
  %11 = tail call i32 @tvb_get_letohl(ptr noundef %0, i32 noundef %1)
  store i32 %11, ptr %6, align 4
  br label %12

12:                                               ; preds = %10, %8
  %13 = load i32, ptr @ett_extcaps, align 4
  %14 = tail call ptr @proto_tree_add_bitmask_with_flags(ptr noundef %3, ptr noundef %0, i32 noundef %1, i32 noundef %4, i32 noundef %13, ptr noundef %5, i32 noundef -2147483648, i32 noundef 1)
  br label %15

15:                                               ; preds = %7, %12
  ret void
}